target datalayout = "e-m:e-p270:32:32-p271:32:32-p272:64:64-i64:64-i128:128-f80:128-n8:16:32:64-S128"
target triple = "x86_64-pc-linux-gnu"

%struct.pkcs7_st = type { ptr, i64, i32, i32, ptr, %union.anon, %struct.PKCS7_CTX_st }
%union.anon = type { ptr }
%struct.PKCS7_CTX_st = type { ptr, ptr }
%struct.pkcs7_signed_st = type { ptr, ptr, ptr, ptr, ptr, ptr }

@.str = private unnamed_addr constant [37 x i8] c"../openssl/crypto/ts/ts_rsp_verify.c\00", align 1
@__func__.TS_RESP_verify_signature = private unnamed_addr constant [25 x i8] c"TS_RESP_verify_signature\00", align 1

; Function Attrs: inlinehint nounwind uwtable
define internal ptr @ossl_check_X509_sk_type(ptr noundef %0) #3 {
  %2 = alloca ptr, align 8
  store ptr %0, ptr %2, align 8, !tbaa !8
  %3 = load ptr, ptr %2, align 8, !tbaa !8
  ret ptr %3
}

; Function Attrs: inlinehint nounwind uwtable
define internal ptr @ossl_check_X509_compfunc_type(ptr noundef %0) #3 {
  %2 = alloca ptr, align 8
  store ptr %0, ptr %2, align 8, !tbaa !39
  %3 = load ptr, ptr %2, align 8, !tbaa !39
  ret ptr %3
}

; Function Attrs: inlinehint nounwind uwtable
define internal ptr @ossl_check_const_X509_sk_type(ptr noundef %0) #3 {
  %2 = alloca ptr, align 8
  store ptr %0, ptr %2, align 8, !tbaa !8
  %3 = load ptr, ptr %2, align 8, !tbaa !8
  ret ptr %3
}

; Function Attrs: inlinehint nounwind uwtable
define internal ptr @ossl_check_const_PKCS7_SIGNER_INFO_sk_type(ptr noundef %0) #3 {
  %2 = alloca ptr, align 8
  store ptr %0, ptr %2, align 8, !tbaa !14
  %3 = load ptr, ptr %2, align 8, !tbaa !14
  ret ptr %3
}

; Function Attrs: nounwind uwtable
define i32 @TS_RESP_verify_signature(ptr noundef %0, ptr noundef %1, ptr noundef %2, ptr noundef %3) #0 {
  %5 = alloca ptr, align 8
  %6 = alloca ptr, align 8
  %7 = alloca ptr, align 8
  %8 = alloca ptr, align 8
  %9 = alloca ptr, align 8
  %10 = alloca ptr, align 8
  %11 = alloca ptr, align 8
  %12 = alloca ptr, align 8
  %13 = alloca ptr, align 8
  %14 = alloca ptr, align 8
  %15 = alloca [4096 x i8], align 16
  %16 = alloca i32, align 4
  %17 = alloca i32, align 4
  %18 = alloca i32, align 4
  %19 = alloca ptr, align 8
  store ptr %0, ptr %5, align 8, !tbaa !3
  store ptr %1, ptr %6, align 8, !tbaa !8
  store ptr %2, ptr %7, align 8, !tbaa !10
  store ptr %3, ptr %8, align 8, !tbaa !12
  call void @llvm.lifetime.start.p0(i64 8, ptr %9) #7
  store ptr null, ptr %9, align 8, !tbaa !14
  call void @llvm.lifetime.start.p0(i64 8, ptr %10) #7
  call void @llvm.lifetime.start.p0(i64 8, ptr %11) #7
  store ptr null, ptr %11, align 8, !tbaa !8
  call void @llvm.lifetime.start.p0(i64 8, ptr %12) #7
  store ptr null, ptr %12, align 8, !tbaa !8
  call void @llvm.lifetime.start.p0(i64 8, ptr %13) #7
  call void @llvm.lifetime.start.p0(i64 8, ptr %14) #7
  store ptr null, ptr %14, align 8, !tbaa !8
  call void @llvm.lifetime.start.p0(i64 4096, ptr %15) #7
  call void @llvm.lifetime.start.p0(i64 4, ptr %16) #7
  call void @llvm.lifetime.start.p0(i64 4, ptr %17) #7
  store i32 0, ptr %17, align 4, !tbaa !16
  call void @llvm.lifetime.start.p0(i64 4, ptr %18) #7
  store i32 0, ptr %18, align 4, !tbaa !16
  call void @llvm.lifetime.start.p0(i64 8, ptr %19) #7
  store ptr null, ptr %19, align 8, !tbaa !18
  %20 = load ptr, ptr %5, align 8, !tbaa !3
  %21 = icmp ne ptr %20, null
  br i1 %21, label %23, label %22

22:                                               ; preds = %4
  call void @ERR_new()
  call void @ERR_set_debug(ptr noundef @.str, i32 noundef 103, ptr noundef @__func__.TS_RESP_verify_signature)
  call void (i32, i32, ptr, ...) @ERR_set_error(i32 noundef 47, i32 noundef 102, ptr noundef null)
  br label %135

23:                                               ; preds = %4
  %24 = load ptr, ptr %5, align 8, !tbaa !3
  %25 = getelementptr inbounds nuw %struct.pkcs7_st, ptr %24, i32 0, i32 4
  %26 = load ptr, ptr %25, align 8, !tbaa !20
  %27 = call i32 @OBJ_obj2nid(ptr noundef %26)
  %28 = icmp eq i32 %27, 22
  br i1 %28, label %30, label %29

29:                                               ; preds = %23
  call void @ERR_new()
  call void @ERR_set_debug(ptr noundef @.str, i32 noundef 107, ptr noundef @__func__.TS_RESP_verify_signature)
  call void (i32, i32, ptr, ...) @ERR_set_error(i32 noundef 47, i32 noundef 114, ptr noundef null)
  br label %135

30:                                               ; preds = %23
  %31 = load ptr, ptr %5, align 8, !tbaa !3
  %32 = call ptr @PKCS7_get_signer_info(ptr noundef %31)
  store ptr %32, ptr %9, align 8, !tbaa !14
  %33 = load ptr, ptr %9, align 8, !tbaa !14
  %34 = icmp ne ptr %33, null
  br i1 %34, label %35, label %40

35:                                               ; preds = %30
  %36 = load ptr, ptr %9, align 8, !tbaa !14
  %37 = call ptr @ossl_check_const_PKCS7_SIGNER_INFO_sk_type(ptr noundef %36)
  %38 = call i32 @OPENSSL_sk_num(ptr noundef %37)
  %39 = icmp ne i32 %38, 1
  br i1 %39, label %40, label %41

40:                                               ; preds = %35, %30
  call void @ERR_new()
  call void @ERR_set_debug(ptr noundef @.str, i32 noundef 112, ptr noundef @__func__.TS_RESP_verify_signature)
  call void (i32, i32, ptr, ...) @ERR_set_error(i32 noundef 47, i32 noundef 110, ptr noundef null)
  br label %135

41:                                               ; preds = %35
  %42 = load ptr, ptr %9, align 8, !tbaa !14
  %43 = call ptr @ossl_check_const_PKCS7_SIGNER_INFO_sk_type(ptr noundef %42)
  %44 = call ptr @OPENSSL_sk_value(ptr noundef %43, i32 noundef 0)
  store ptr %44, ptr %10, align 8, !tbaa !27
  %45 = load ptr, ptr %5, align 8, !tbaa !3
  %46 = call i64 @PKCS7_ctrl(ptr noundef %45, i32 noundef 2, i64 noundef 0, ptr noundef null)
  %47 = icmp ne i64 %46, 0
  br i1 %47, label %48, label %49

48:                                               ; preds = %41
  call void @ERR_new()
  call void @ERR_set_debug(ptr noundef @.str, i32 noundef 117, ptr noundef @__func__.TS_RESP_verify_signature)
  call void (i32, i32, ptr, ...) @ERR_set_error(i32 noundef 47, i32 noundef 106, ptr noundef null)
  br label %135

49:                                               ; preds = %41
  %50 = load ptr, ptr %5, align 8, !tbaa !3
  %51 = load ptr, ptr %6, align 8, !tbaa !8
  %52 = call ptr @PKCS7_get0_signers(ptr noundef %50, ptr noundef %51, i32 noundef 0)
  store ptr %52, ptr %12, align 8, !tbaa !8
  %53 = load ptr, ptr %12, align 8, !tbaa !8
  %54 = icmp ne ptr %53, null
  br i1 %54, label %55, label %60

55:                                               ; preds = %49
  %56 = load ptr, ptr %12, align 8, !tbaa !8
  %57 = call ptr @ossl_check_const_X509_sk_type(ptr noundef %56)
  %58 = call i32 @OPENSSL_sk_num(ptr noundef %57)
  %59 = icmp ne i32 %58, 1
  br i1 %59, label %60, label %61

60:                                               ; preds = %55, %49
  br label %135

61:                                               ; preds = %55
  %62 = load ptr, ptr %12, align 8, !tbaa !8
  %63 = call ptr @ossl_check_const_X509_sk_type(ptr noundef %62)
  %64 = call ptr @OPENSSL_sk_value(ptr noundef %63, i32 noundef 0)
  store ptr %64, ptr %13, align 8, !tbaa !29
  %65 = call ptr @ossl_check_X509_compfunc_type(ptr noundef null)
  %66 = load ptr, ptr %6, align 8, !tbaa !8
  %67 = call ptr @ossl_check_const_X509_sk_type(ptr noundef %66)
  %68 = call i32 @OPENSSL_sk_num(ptr noundef %67)
  %69 = load ptr, ptr %5, align 8, !tbaa !3
  %70 = getelementptr inbounds nuw %struct.pkcs7_st, ptr %69, i32 0, i32 5
  %71 = load ptr, ptr %70, align 8, !tbaa !31
  %72 = getelementptr inbounds nuw %struct.pkcs7_signed_st, ptr %71, i32 0, i32 2
  %73 = load ptr, ptr %72, align 8, !tbaa !32
  %74 = call ptr @ossl_check_const_X509_sk_type(ptr noundef %73)
  %75 = call i32 @OPENSSL_sk_num(ptr noundef %74)
  %76 = add nsw i32 %68, %75
  %77 = call ptr @OPENSSL_sk_new_reserve(ptr noundef %65, i32 noundef %76)
  store ptr %77, ptr %11, align 8, !tbaa !8
  %78 = load ptr, ptr %11, align 8, !tbaa !8
  %79 = icmp eq ptr %78, null
  br i1 %79, label %94, label %80

80:                                               ; preds = %61
  %81 = load ptr, ptr %11, align 8, !tbaa !8
  %82 = load ptr, ptr %6, align 8, !tbaa !8
  %83 = call i32 @X509_add_certs(ptr noundef %81, ptr noundef %82, i32 noundef 0)
  %84 = icmp ne i32 %83, 0
  br i1 %84, label %85, label %94

85:                                               ; preds = %80
  %86 = load ptr, ptr %11, align 8, !tbaa !8
  %87 = load ptr, ptr %5, align 8, !tbaa !3
  %88 = getelementptr inbounds nuw %struct.pkcs7_st, ptr %87, i32 0, i32 5
  %89 = load ptr, ptr %88, align 8, !tbaa !31
  %90 = getelementptr inbounds nuw %struct.pkcs7_signed_st, ptr %89, i32 0, i32 2
  %91 = load ptr, ptr %90, align 8, !tbaa !32
  %92 = call i32 @X509_add_certs(ptr noundef %86, ptr noundef %91, i32 noundef 0)
  %93 = icmp ne i32 %92, 0
  br i1 %93, label %95, label %94

94:                                               ; preds = %85, %80, %61
  br label %135

95:                                               ; preds = %85
  %96 = load ptr, ptr %7, align 8, !tbaa !10
  %97 = load ptr, ptr %11, align 8, !tbaa !8
  %98 = load ptr, ptr %13, align 8, !tbaa !29
  %99 = call i32 @ts_verify_cert(ptr noundef %96, ptr noundef %97, ptr noundef %98, ptr noundef %14)
  %100 = icmp ne i32 %99, 0
  br i1 %100, label %102, label %101

101:                                              ; preds = %95
  br label %135

102:                                              ; preds = %95
  %103 = load ptr, ptr %10, align 8, !tbaa !27
  %104 = load ptr, ptr %14, align 8, !tbaa !8
  %105 = call i32 @ts_check_signing_certs(ptr noundef %103, ptr noundef %104)
  %106 = icmp ne i32 %105, 0
  br i1 %106, label %108, label %107

107:                                              ; preds = %102
  br label %135

108:                                              ; preds = %102
  %109 = load ptr, ptr %5, align 8, !tbaa !3
  %110 = call ptr @PKCS7_dataInit(ptr noundef %109, ptr noundef null)
  store ptr %110, ptr %19, align 8, !tbaa !18
  br label %111

111:                                              ; preds = %116, %108
  %112 = load ptr, ptr %19, align 8, !tbaa !18
  %113 = getelementptr inbounds [4096 x i8], ptr %15, i64 0, i64 0
  %114 = call i32 @BIO_read(ptr noundef %112, ptr noundef %113, i32 noundef 4096)
  store i32 %114, ptr %16, align 4, !tbaa !16
  %115 = icmp sgt i32 %114, 0
  br i1 %115, label %116, label %117

116:                                              ; preds = %111
  br label %111, !llvm.loop !37

117:                                              ; preds = %111
  %118 = load ptr, ptr %19, align 8, !tbaa !18
  %119 = load ptr, ptr %5, align 8, !tbaa !3
  %120 = load ptr, ptr %10, align 8, !tbaa !27
  %121 = load ptr, ptr %13, align 8, !tbaa !29
  %122 = call i32 @PKCS7_signatureVerify(ptr noundef %118, ptr noundef %119, ptr noundef %120, ptr noundef %121)
  store i32 %122, ptr %17, align 4, !tbaa !16
  %123 = load i32, ptr %17, align 4, !tbaa !16
  %124 = icmp sle i32 %123, 0
  br i1 %124, label %125, label %126

125:                                              ; preds = %117
  call void @ERR_new()
  call void @ERR_set_debug(ptr noundef @.str, i32 noundef 148, ptr noundef @__func__.TS_RESP_verify_signature)
  call void (i32, i32, ptr, ...) @ERR_set_error(i32 noundef 47, i32 noundef 109, ptr noundef null)
  br label %135

126:                                              ; preds = %117
  %127 = load ptr, ptr %8, align 8, !tbaa !12
  %128 = icmp ne ptr %127, null
  br i1 %128, label %129, label %134

129:                                              ; preds = %126
  %130 = load ptr, ptr %13, align 8, !tbaa !29
  %131 = load ptr, ptr %8, align 8, !tbaa !12
  store ptr %130, ptr %131, align 8, !tbaa !29
  %132 = load ptr, ptr %13, align 8, !tbaa !29
  %133 = call i32 @X509_up_ref(ptr noundef %132)
  br label %134

134:                                              ; preds = %129, %126
  store i32 1, ptr %18, align 4, !tbaa !16
  br label %135

135:                                              ; preds = %134, %125, %107, %101, %94, %60, %48, %40, %29, %22
  %136 = load ptr, ptr %19, align 8, !tbaa !18
  call void @BIO_free_all(ptr noundef %136)
  %137 = load ptr, ptr %11, align 8, !tbaa !8
  %138 = call ptr @ossl_check_X509_sk_type(ptr noundef %137)
  call void @OPENSSL_sk_free(ptr noundef %138)
  %139 = load ptr, ptr %14, align 8, !tbaa !8
  call void @OSSL_STACK_OF_X509_free(ptr noundef %139)
  %140 = load ptr, ptr %12, align 8, !tbaa !8
  %141 = call ptr @ossl_check_X509_sk_type(ptr noundef %140)
  call void @OPENSSL_sk_free(ptr noundef %141)
  %142 = load i32, ptr %18, align 4, !tbaa !16
  call void @llvm.lifetime.end.p0(i64 8, ptr %19) #7
  call void @llvm.lifetime.end.p0(i64 4, ptr %18) #7
  call void @llvm.lifetime.end.p0(i64 4, ptr %17) #7
  call void @llvm.lifetime.end.p0(i64 4, ptr %16) #7
  call void @llvm.lifetime.end.p0(i64 4096, ptr %15) #7
  call void @llvm.lifetime.end.p0(i64 8, ptr %14) #7
  call void @llvm.lifetime.end.p0(i64 8, ptr %13) #7
  call void @llvm.lifetime.end.p0(i64 8, ptr %12) #7
  call void @llvm.lifetime.end.p0(i64 8, ptr %11) #7
  call void @llvm.lifetime.end.p0(i64 8, ptr %10) #7
  call void @llvm.lifetime.end.p0(i64 8, ptr %9) #7
  ret i32 %142
}