; Function Attrs: nounwind uwtable
define range(i32 0, 2) i32 @TS_RESP_verify_signature(ptr noundef %0, ptr noundef %1, ptr noundef %2, ptr noundef writeonly captures(address_is_null) %3) local_unnamed_addr #0 {
  %5 = alloca ptr, align 8
  %6 = alloca [4096 x i8], align 16
  call void @llvm.lifetime.start.p0(i64 8, ptr nonnull %5) #7
  call void @llvm.lifetime.start.p0(i64 4096, ptr nonnull %6) #7
  %.not = icmp eq ptr %0, null
  br i1 %.not, label %7, label %8

7:                                                ; preds = %4
  tail call void @ERR_new() #7
  tail call void @ERR_set_debug(ptr noundef nonnull @.str, i32 noundef 103, ptr noundef nonnull @__func__.TS_RESP_verify_signature) #7
  tail call void (i32, i32, ptr, ...) @ERR_set_error(i32 noundef 47, i32 noundef 102, ptr noundef null) #7
  br label %61

8:                                                ; preds = %4
  %9 = getelementptr inbounds nuw i8, ptr %0, i64 24
  %10 = load ptr, ptr %9, align 8, !tbaa !3
  %11 = tail call i32 @OBJ_obj2nid(ptr noundef %10) #7
  %12 = icmp eq i32 %11, 22
  br i1 %12, label %14, label %13

13:                                               ; preds = %8
  tail call void @ERR_new() #7
  tail call void @ERR_set_debug(ptr noundef nonnull @.str, i32 noundef 107, ptr noundef nonnull @__func__.TS_RESP_verify_signature) #7
  tail call void (i32, i32, ptr, ...) @ERR_set_error(i32 noundef 47, i32 noundef 114, ptr noundef null) #7
  br label %61

14:                                               ; preds = %8
  %15 = tail call ptr @PKCS7_get_signer_info(ptr noundef nonnull %0) #7
  %.not46 = icmp eq ptr %15, null
  br i1 %.not46, label %18, label %16

16:                                               ; preds = %14
  %17 = tail call i32 @OPENSSL_sk_num(ptr noundef nonnull %15) #7
  %.not47 = icmp eq i32 %17, 1
  br i1 %.not47, label %19, label %18

18:                                               ; preds = %16, %14
  tail call void @ERR_new() #7
  tail call void @ERR_set_debug(ptr noundef nonnull @.str, i32 noundef 112, ptr noundef nonnull @__func__.TS_RESP_verify_signature) #7
  tail call void (i32, i32, ptr, ...) @ERR_set_error(i32 noundef 47, i32 noundef 110, ptr noundef null) #7
  br label %61

19:                                               ; preds = %16
  %20 = tail call ptr @OPENSSL_sk_value(ptr noundef nonnull %15, i32 noundef 0) #7
  %21 = tail call i64 @PKCS7_ctrl(ptr noundef nonnull %0, i32 noundef 2, i64 noundef 0, ptr noundef null) #7
  %.not48 = icmp eq i64 %21, 0
  br i1 %.not48, label %23, label %22

22:                                               ; preds = %19
  tail call void @ERR_new() #7
  tail call void @ERR_set_debug(ptr noundef nonnull @.str, i32 noundef 117, ptr noundef nonnull @__func__.TS_RESP_verify_signature) #7
  tail call void (i32, i32, ptr, ...) @ERR_set_error(i32 noundef 47, i32 noundef 106, ptr noundef null) #7
  br label %61

23:                                               ; preds = %19
  %24 = tail call ptr @PKCS7_get0_signers(ptr noundef nonnull %0, ptr noundef %1, i32 noundef 0) #7
  %.not49 = icmp eq ptr %24, null
  br i1 %.not49, label %61, label %25

25:                                               ; preds = %23
  %26 = tail call i32 @OPENSSL_sk_num(ptr noundef nonnull %24) #7
  %.not50 = icmp eq i32 %26, 1
  br i1 %.not50, label %27, label %61

27:                                               ; preds = %25
  %28 = tail call ptr @OPENSSL_sk_value(ptr noundef nonnull %24, i32 noundef 0) #7
  %29 = tail call i32 @OPENSSL_sk_num(ptr noundef %1) #7
  %30 = getelementptr inbounds nuw i8, ptr %0, i64 32
  %31 = load ptr, ptr %30, align 8, !tbaa !14
  %32 = getelementptr inbounds nuw i8, ptr %31, i64 16
  %33 = load ptr, ptr %32, align 8, !tbaa !15
  %34 = tail call i32 @OPENSSL_sk_num(ptr noundef %33) #7
  %35 = add nsw i32 %34, %29
  %36 = tail call ptr @OPENSSL_sk_new_reserve(ptr noundef null, i32 noundef %35) #7
  %37 = icmp eq ptr %36, null
  br i1 %37, label %61, label %38

38:                                               ; preds = %27
  %39 = tail call i32 @X509_add_certs(ptr noundef nonnull %36, ptr noundef %1, i32 noundef 0) #7
  %.not51 = icmp eq i32 %39, 0
  br i1 %.not51, label %61, label %40

40:                                               ; preds = %38
  %41 = load ptr, ptr %30, align 8, !tbaa !14
  %42 = getelementptr inbounds nuw i8, ptr %41, i64 16
  %43 = load ptr, ptr %42, align 8, !tbaa !15
  %44 = tail call i32 @X509_add_certs(ptr noundef nonnull %36, ptr noundef %43, i32 noundef 0) #7
  %.not52 = icmp eq i32 %44, 0
  br i1 %.not52, label %61, label %45

45:                                               ; preds = %40
  %46 = call fastcc i32 @ts_verify_cert(ptr noundef %2, ptr noundef %36, ptr noundef %28, ptr noundef %5)
  %.not53 = icmp eq i32 %46, 0
  %.pre = load ptr, ptr %5, align 8, !tbaa !23
  br i1 %.not53, label %61, label %47

47:                                               ; preds = %45
  %48 = tail call fastcc i32 @ts_check_signing_certs(ptr noundef %20, ptr noundef %.pre)
  %.not54 = icmp eq i32 %48, 0
  br i1 %.not54, label %61, label %49

49:                                               ; preds = %47
  %50 = tail call ptr @PKCS7_dataInit(ptr noundef nonnull %0, ptr noundef null) #7
  br label %51

51:                                               ; preds = %51, %49
  %52 = call i32 @BIO_read(ptr noundef %50, ptr noundef nonnull %6, i32 noundef 4096) #7
  %53 = icmp sgt i32 %52, 0
  br i1 %53, label %51, label %54, !llvm.loop !24

54:                                               ; preds = %51
  %55 = call i32 @PKCS7_signatureVerify(ptr noundef %50, ptr noundef nonnull %0, ptr noundef %20, ptr noundef %28) #7
  %56 = icmp slt i32 %55, 1
  br i1 %56, label %57, label %58

57:                                               ; preds = %54
  call void @ERR_new() #7
  call void @ERR_set_debug(ptr noundef nonnull @.str, i32 noundef 148, ptr noundef nonnull @__func__.TS_RESP_verify_signature) #7
  call void (i32, i32, ptr, ...) @ERR_set_error(i32 noundef 47, i32 noundef 109, ptr noundef null) #7
  br label %61

58:                                               ; preds = %54
  %.not55 = icmp eq ptr %3, null
  br i1 %.not55, label %61, label %59

59:                                               ; preds = %58
  store ptr %28, ptr %3, align 8, !tbaa !26
  %60 = call i32 @X509_up_ref(ptr noundef %28) #7
  br label %61

61:                                               ; preds = %58, %59, %47, %45, %27, %38, %40, %23, %25, %57, %22, %18, %13, %7
  %62 = phi ptr [ null, %18 ], [ null, %22 ], [ null, %25 ], [ null, %27 ], [ %.pre, %57 ], [ %.pre, %47 ], [ %.pre, %45 ], [ null, %40 ], [ null, %38 ], [ null, %23 ], [ null, %13 ], [ null, %7 ], [ %.pre, %59 ], [ %.pre, %58 ]
  %.039 = phi ptr [ null, %18 ], [ null, %22 ], [ %24, %25 ], [ %24, %27 ], [ %24, %57 ], [ %24, %47 ], [ %24, %45 ], [ %24, %40 ], [ %24, %38 ], [ null, %23 ], [ null, %13 ], [ null, %7 ], [ %24, %59 ], [ %24, %58 ]
  %.038 = phi ptr [ null, %18 ], [ null, %22 ], [ null, %25 ], [ null, %27 ], [ %36, %57 ], [ %36, %47 ], [ %36, %45 ], [ %36, %40 ], [ %36, %38 ], [ null, %23 ], [ null, %13 ], [ null, %7 ], [ %36, %59 ], [ %36, %58 ]
  %.037 = phi i32 [ 0, %18 ], [ 0, %22 ], [ 0, %25 ], [ 0, %27 ], [ 0, %57 ], [ 0, %47 ], [ 0, %45 ], [ 0, %40 ], [ 0, %38 ], [ 0, %23 ], [ 0, %13 ], [ 0, %7 ], [ 1, %59 ], [ 1, %58 ]
  %.0 = phi ptr [ null, %18 ], [ null, %22 ], [ null, %25 ], [ null, %27 ], [ %50, %57 ], [ null, %47 ], [ null, %45 ], [ null, %40 ], [ null, %38 ], [ null, %23 ], [ null, %13 ], [ null, %7 ], [ %50, %59 ], [ %50, %58 ]
  call void @BIO_free_all(ptr noundef %.0) #7
  call void @OPENSSL_sk_free(ptr noundef %.038) #7
  call void @OSSL_STACK_OF_X509_free(ptr noundef %62) #7
  call void @OPENSSL_sk_free(ptr noundef %.039) #7
  call void @llvm.lifetime.end.p0(i64 4096, ptr nonnull %6) #7
  call void @llvm.lifetime.end.p0(i64 8, ptr nonnull %5) #7
  ret i32 %.037
}